target datalayout = "e-m:e-p270:32:32-p271:32:32-p272:64:64-i64:64-i128:128-f80:128-n8:16:32:64-S128"
target triple = "x86_64-pc-linux-gnu"

%"struct.duckdb_zstd::ZSTD_frameHeader" = type { i64, i64, i32, i32, i32, i32, i32, i32, i32 }
%"struct.duckdb_zstd::ZSTD_frameSizeInfo" = type { i64, i64, i64 }

; Function Attrs: mustprogress uwtable
define internal noundef i64 @_ZN11duckdb_zstdL37ZSTD_findFrameCompressedSize_advancedEPKvmNS_13ZSTD_format_eE(ptr noundef %0, i64 noundef %1, i32 noundef %2) #0 {
  %4 = alloca ptr, align 8
  %5 = alloca i64, align 8
  %6 = alloca i32, align 4
  %7 = alloca %"struct.duckdb_zstd::ZSTD_frameSizeInfo", align 8
  store ptr %0, ptr %4, align 8, !tbaa !33
  store i64 %1, ptr %5, align 8, !tbaa !34
  store i32 %2, ptr %6, align 4, !tbaa !55
  call void @llvm.lifetime.start.p0(i64 24, ptr %7) #12
  %8 = load ptr, ptr %4, align 8, !tbaa !33
  %9 = load i64, ptr %5, align 8, !tbaa !34
  %10 = load i32, ptr %6, align 4, !tbaa !55
  call void @_ZN11duckdb_zstdL22ZSTD_findFrameSizeInfoEPKvmNS_13ZSTD_format_eE(ptr dead_on_unwind writable sret(%"struct.duckdb_zstd::ZSTD_frameSizeInfo") align 8 %7, ptr noundef %8, i64 noundef %9, i32 noundef %10)
  %11 = getelementptr inbounds nuw %"struct.duckdb_zstd::ZSTD_frameSizeInfo", ptr %7, i32 0, i32 1
  %12 = load i64, ptr %11, align 8, !tbaa !69
  call void @llvm.lifetime.end.p0(i64 24, ptr %7) #12
  ret i64 %12
}

; Function Attrs: mustprogress uwtable
define noundef i64 @_ZN11duckdb_zstd19ZSTD_getFrameHeaderEPNS_16ZSTD_frameHeaderEPKvm(ptr noundef %0, ptr noundef %1, i64 noundef %2) #0 {
  %4 = alloca ptr, align 8
  %5 = alloca ptr, align 8
  %6 = alloca i64, align 8
  store ptr %0, ptr %4, align 8, !tbaa !33
  store ptr %1, ptr %5, align 8, !tbaa !33
  store i64 %2, ptr %6, align 8, !tbaa !34
  %7 = load ptr, ptr %4, align 8, !tbaa !33
  %8 = load ptr, ptr %5, align 8, !tbaa !33
  %9 = load i64, ptr %6, align 8, !tbaa !34
  %10 = call noundef i64 @_ZN11duckdb_zstd28ZSTD_getFrameHeader_advancedEPNS_16ZSTD_frameHeaderEPKvmNS_13ZSTD_format_eE(ptr noundef %7, ptr noundef %8, i64 noundef %9, i32 noundef 0)
  ret i64 %10
}

; Function Attrs: inlinehint mustprogress nounwind uwtable
define internal noundef i32 @_ZN11duckdb_zstdL10MEM_swap32Ej(i32 noundef %0) #7 {
  %2 = alloca i32, align 4
  store i32 %0, ptr %2, align 4, !tbaa !54
  %3 = load i32, ptr %2, align 4, !tbaa !54
  %4 = call i32 @llvm.bswap.i32(i32 %3)
  ret i32 %4
}

; Function Attrs: inlinehint mustprogress nounwind uwtable
define internal noundef i32 @_ZN11duckdb_zstdL10MEM_read32EPKv(ptr noundef %0) #7 {
  %2 = alloca ptr, align 8
  store ptr %0, ptr %2, align 8, !tbaa !33
  %3 = load ptr, ptr %2, align 8, !tbaa !33
  %4 = load i32, ptr %3, align 1, !tbaa !54
  ret i32 %4
}

; Function Attrs: inlinehint mustprogress nounwind uwtable
define internal noundef i32 @_ZN11duckdb_zstdL18MEM_isLittleEndianEv() #7 {
  ret i32 1
}

; Function Attrs: mustprogress uwtable
define noundef i64 @_ZN11duckdb_zstd28ZSTD_findFrameCompressedSizeEPKvm(ptr noundef %0, i64 noundef %1) #0 {
  %3 = alloca ptr, align 8
  %4 = alloca i64, align 8
  store ptr %0, ptr %3, align 8, !tbaa !33
  store i64 %1, ptr %4, align 8, !tbaa !34
  %5 = load ptr, ptr %3, align 8, !tbaa !33
  %6 = load i64, ptr %4, align 8, !tbaa !34
  %7 = call noundef i64 @_ZN11duckdb_zstdL37ZSTD_findFrameCompressedSize_advancedEPKvmNS_13ZSTD_format_eE(ptr noundef %5, i64 noundef %6, i32 noundef 0)
  ret i64 %7
}

; Function Attrs: mustprogress uwtable
define noundef i64 @_ZN11duckdb_zstd24ZSTD_getFrameContentSizeEPKvm(ptr noundef %0, i64 noundef %1) #0 {
  %3 = alloca i64, align 8
  %4 = alloca ptr, align 8
  %5 = alloca i64, align 8
  %6 = alloca %"struct.duckdb_zstd::ZSTD_frameHeader", align 8
  %7 = alloca i32, align 4
  store ptr %0, ptr %4, align 8, !tbaa !33
  store i64 %1, ptr %5, align 8, !tbaa !34
  call void @llvm.lifetime.start.p0(i64 48, ptr %6) #12
  %8 = load ptr, ptr %4, align 8, !tbaa !33
  %9 = load i64, ptr %5, align 8, !tbaa !34
  %10 = call noundef i64 @_ZN11duckdb_zstd19ZSTD_getFrameHeaderEPNS_16ZSTD_frameHeaderEPKvm(ptr noundef %6, ptr noundef %8, i64 noundef %9)
  %11 = icmp ne i64 %10, 0
  br i1 %11, label %12, label %13

12:                                               ; preds = %2
  store i64 -2, ptr %3, align 8
  store i32 1, ptr %7, align 4
  br label %21

13:                                               ; preds = %2
  %14 = getelementptr inbounds nuw %"struct.duckdb_zstd::ZSTD_frameHeader", ptr %6, i32 0, i32 3
  %15 = load i32, ptr %14, align 4, !tbaa !59
  %16 = icmp eq i32 %15, 1
  br i1 %16, label %17, label %18

17:                                               ; preds = %13
  store i64 0, ptr %3, align 8
  store i32 1, ptr %7, align 4
  br label %21

18:                                               ; preds = %13
  %19 = getelementptr inbounds nuw %"struct.duckdb_zstd::ZSTD_frameHeader", ptr %6, i32 0, i32 0
  %20 = load i64, ptr %19, align 8, !tbaa !58
  store i64 %20, ptr %3, align 8
  store i32 1, ptr %7, align 4
  br label %21

21:                                               ; preds = %18, %17, %12
  call void @llvm.lifetime.end.p0(i64 48, ptr %6) #12
  %22 = load i64, ptr %3, align 8
  ret i64 %22
}

; Function Attrs: mustprogress nounwind uwtable
define internal noundef i32 @_ZN11duckdb_zstdL11ERR_isErrorEm(i64 noundef %0) #2 {
  %2 = alloca i64, align 8
  store i64 %0, ptr %2, align 8, !tbaa !34
  %3 = load i64, ptr %2, align 8, !tbaa !34
  %4 = icmp ugt i64 %3, -120
  %5 = zext i1 %4 to i32
  ret i32 %5
}

; Function Attrs: mustprogress uwtable
define internal noundef i64 @_ZN11duckdb_zstdL22readSkippableFrameSizeEPKvm(ptr noundef %0, i64 noundef %1) #0 {
  %3 = alloca i64, align 8
  %4 = alloca ptr, align 8
  %5 = alloca i64, align 8
  %6 = alloca i64, align 8
  %7 = alloca i32, align 4
  %8 = alloca i32, align 4
  %9 = alloca i64, align 8
  store ptr %0, ptr %4, align 8, !tbaa !33
  store i64 %1, ptr %5, align 8, !tbaa !34
  call void @llvm.lifetime.start.p0(i64 8, ptr %6) #12
  store i64 8, ptr %6, align 8, !tbaa !34
  call void @llvm.lifetime.start.p0(i64 4, ptr %7) #12
  br label %10

10:                                               ; preds = %2
  %11 = load i64, ptr %5, align 8, !tbaa !34
  %12 = icmp ult i64 %11, 8
  br i1 %12, label %13, label %26

13:                                               ; preds = %10
  br label %14

14:                                               ; preds = %13
  br label %15

15:                                               ; preds = %14
  br label %16

16:                                               ; preds = %15
  br label %17

17:                                               ; preds = %16
  br label %18

18:                                               ; preds = %17
  br label %19

19:                                               ; preds = %18
  br label %20

20:                                               ; preds = %19
  br label %21

21:                                               ; preds = %20
  br label %22

22:                                               ; preds = %21
  br label %23

23:                                               ; preds = %22
  br label %24

24:                                               ; preds = %23
  br label %25

25:                                               ; preds = %24
  store i64 -72, ptr %3, align 8
  store i32 1, ptr %8, align 4
  br label %78

26:                                               ; preds = %10
  br label %27

27:                                               ; preds = %26
  br label %28

28:                                               ; preds = %27
  %29 = load ptr, ptr %4, align 8, !tbaa !33
  %30 = getelementptr inbounds i8, ptr %29, i64 4
  %31 = call noundef i32 @_ZN11duckdb_zstdL12MEM_readLE32EPKv(ptr noundef %30)
  store i32 %31, ptr %7, align 4, !tbaa !54
  br label %32

32:                                               ; preds = %28
  %33 = load i32, ptr %7, align 4, !tbaa !54
  %34 = add i32 %33, 8
  %35 = load i32, ptr %7, align 4, !tbaa !54
  %36 = icmp ult i32 %34, %35
  br i1 %36, label %37, label %50

37:                                               ; preds = %32
  br label %38

38:                                               ; preds = %37
  br label %39

39:                                               ; preds = %38
  br label %40

40:                                               ; preds = %39
  br label %41

41:                                               ; preds = %40
  br label %42

42:                                               ; preds = %41
  br label %43

43:                                               ; preds = %42
  br label %44

44:                                               ; preds = %43
  br label %45

45:                                               ; preds = %44
  br label %46

46:                                               ; preds = %45
  br label %47

47:                                               ; preds = %46
  br label %48

48:                                               ; preds = %47
  br label %49

49:                                               ; preds = %48
  store i64 -14, ptr %3, align 8
  store i32 1, ptr %8, align 4
  br label %78

50:                                               ; preds = %32
  br label %51

51:                                               ; preds = %50
  br label %52

52:                                               ; preds = %51
  call void @llvm.lifetime.start.p0(i64 8, ptr %9) #12
  %53 = load i32, ptr %7, align 4, !tbaa !54
  %54 = zext i32 %53 to i64
  %55 = add i64 8, %54
  store i64 %55, ptr %9, align 8, !tbaa !34
  br label %56

56:                                               ; preds = %52
  %57 = load i64, ptr %9, align 8, !tbaa !34
  %58 = load i64, ptr %5, align 8, !tbaa !34
  %59 = icmp ugt i64 %57, %58
  br i1 %59, label %60, label %73

60:                                               ; preds = %56
  br label %61

61:                                               ; preds = %60
  br label %62

62:                                               ; preds = %61
  br label %63

63:                                               ; preds = %62
  br label %64

64:                                               ; preds = %63
  br label %65

65:                                               ; preds = %64
  br label %66

66:                                               ; preds = %65
  br label %67

67:                                               ; preds = %66
  br label %68

68:                                               ; preds = %67
  br label %69

69:                                               ; preds = %68
  br label %70

70:                                               ; preds = %69
  br label %71

71:                                               ; preds = %70
  br label %72

72:                                               ; preds = %71
  store i64 -72, ptr %3, align 8
  store i32 1, ptr %8, align 4
  br label %77

73:                                               ; preds = %56
  br label %74

74:                                               ; preds = %73
  br label %75

75:                                               ; preds = %74
  %76 = load i64, ptr %9, align 8, !tbaa !34
  store i64 %76, ptr %3, align 8
  store i32 1, ptr %8, align 4
  br label %77

77:                                               ; preds = %75, %72
  call void @llvm.lifetime.end.p0(i64 8, ptr %9) #12
  br label %78

78:                                               ; preds = %77, %49, %25
  call void @llvm.lifetime.end.p0(i64 4, ptr %7) #12
  call void @llvm.lifetime.end.p0(i64 8, ptr %6) #12
  %79 = load i64, ptr %3, align 8
  ret i64 %79
}

; Function Attrs: inlinehint mustprogress uwtable
define internal noundef i32 @_ZN11duckdb_zstdL12MEM_readLE32EPKv(ptr noundef %0) #5 {
  %2 = alloca i32, align 4
  %3 = alloca ptr, align 8
  store ptr %0, ptr %3, align 8, !tbaa !33
  %4 = call noundef i32 @_ZN11duckdb_zstdL18MEM_isLittleEndianEv()
  %5 = icmp ne i32 %4, 0
  br i1 %5, label %6, label %9

6:                                                ; preds = %1
  %7 = load ptr, ptr %3, align 8, !tbaa !33
  %8 = call noundef i32 @_ZN11duckdb_zstdL10MEM_read32EPKv(ptr noundef %7)
  store i32 %8, ptr %2, align 4
  br label %13

9:                                                ; preds = %1
  %10 = load ptr, ptr %3, align 8, !tbaa !33
  %11 = call noundef i32 @_ZN11duckdb_zstdL10MEM_read32EPKv(ptr noundef %10)
  %12 = call noundef i32 @_ZN11duckdb_zstdL10MEM_swap32Ej(i32 noundef %11)
  store i32 %12, ptr %2, align 4
  br label %13

13:                                               ; preds = %9, %6
  %14 = load i32, ptr %2, align 4
  ret i32 %14
}

; Function Attrs: mustprogress nounwind uwtable
define internal noundef i64 @_ZN11duckdb_zstdL24ZSTD_startingInputLengthENS_13ZSTD_format_eE(i32 noundef %0) #2 {
  %2 = alloca i32, align 4
  %3 = alloca i64, align 8
  store i32 %0, ptr %2, align 4, !tbaa !55
  call void @llvm.lifetime.start.p0(i64 8, ptr %3) #12
  %4 = load i32, ptr %2, align 4, !tbaa !55
  %5 = icmp eq i32 %4, 0
  %6 = select i1 %5, i32 5, i32 1
  %7 = sext i32 %6 to i64
  store i64 %7, ptr %3, align 8, !tbaa !34
  %8 = load i64, ptr %3, align 8, !tbaa !34
  call void @llvm.lifetime.end.p0(i64 8, ptr %3) #12
  ret i64 %8
}

; Function Attrs: mustprogress uwtable
define noundef i64 @_ZN11duckdb_zstd25ZSTD_findDecompressedSizeEPKvm(ptr noundef %0, i64 noundef %1) #0 {
  %3 = alloca i64, align 8
  %4 = alloca ptr, align 8
  %5 = alloca i64, align 8
  %6 = alloca i64, align 8
  %7 = alloca i32, align 4
  %8 = alloca i64, align 8
  %9 = alloca i32, align 4
  %10 = alloca i64, align 8
  %11 = alloca i64, align 8
  store ptr %0, ptr %4, align 8, !tbaa !33
  store i64 %1, ptr %5, align 8, !tbaa !34
  call void @llvm.lifetime.start.p0(i64 8, ptr %6) #12
  store i64 0, ptr %6, align 8, !tbaa !66
  br label %12

12:                                               ; preds = %79, %77, %2
  %13 = load i64, ptr %5, align 8, !tbaa !34
  %14 = call noundef i64 @_ZN11duckdb_zstdL24ZSTD_startingInputLengthENS_13ZSTD_format_eE(i32 noundef 0)
  %15 = icmp uge i64 %13, %14
  br i1 %15, label %16, label %80

16:                                               ; preds = %12
  call void @llvm.lifetime.start.p0(i64 4, ptr %7) #12
  %17 = load ptr, ptr %4, align 8, !tbaa !33
  %18 = call noundef i32 @_ZN11duckdb_zstdL12MEM_readLE32EPKv(ptr noundef %17)
  store i32 %18, ptr %7, align 4, !tbaa !54
  %19 = load i32, ptr %7, align 4, !tbaa !54
  %20 = and i32 %19, -16
  %21 = icmp eq i32 %20, 407710288
  br i1 %21, label %22, label %38

22:                                               ; preds = %16
  call void @llvm.lifetime.start.p0(i64 8, ptr %8) #12
  %23 = load ptr, ptr %4, align 8, !tbaa !33
  %24 = load i64, ptr %5, align 8, !tbaa !34
  %25 = call noundef i64 @_ZN11duckdb_zstdL22readSkippableFrameSizeEPKvm(ptr noundef %23, i64 noundef %24)
  store i64 %25, ptr %8, align 8, !tbaa !34
  %26 = load i64, ptr %8, align 8, !tbaa !34
  %27 = call noundef i32 @_ZN11duckdb_zstdL11ERR_isErrorEm(i64 noundef %26)
  %28 = icmp ne i32 %27, 0
  br i1 %28, label %29, label %30

29:                                               ; preds = %22
  store i64 -2, ptr %3, align 8
  store i32 1, ptr %9, align 4
  br label %37

30:                                               ; preds = %22
  %31 = load ptr, ptr %4, align 8, !tbaa !33
  %32 = load i64, ptr %8, align 8, !tbaa !34
  %33 = getelementptr inbounds nuw i8, ptr %31, i64 %32
  store ptr %33, ptr %4, align 8, !tbaa !33
  %34 = load i64, ptr %8, align 8, !tbaa !34
  %35 = load i64, ptr %5, align 8, !tbaa !34
  %36 = sub i64 %35, %34
  store i64 %36, ptr %5, align 8, !tbaa !34
  store i32 2, ptr %9, align 4
  br label %37, !llvm.loop !67

37:                                               ; preds = %30, %29
  call void @llvm.lifetime.end.p0(i64 8, ptr %8) #12
  br label %77

38:                                               ; preds = %16
  call void @llvm.lifetime.start.p0(i64 8, ptr %10) #12
  %39 = load ptr, ptr %4, align 8, !tbaa !33
  %40 = load i64, ptr %5, align 8, !tbaa !34
  %41 = call noundef i64 @_ZN11duckdb_zstd24ZSTD_getFrameContentSizeEPKvm(ptr noundef %39, i64 noundef %40)
  store i64 %41, ptr %10, align 8, !tbaa !66
  %42 = load i64, ptr %10, align 8, !tbaa !66
  %43 = icmp uge i64 %42, -2
  br i1 %43, label %44, label %46

44:                                               ; preds = %38
  %45 = load i64, ptr %10, align 8, !tbaa !66
  store i64 %45, ptr %3, align 8
  store i32 1, ptr %9, align 4
  br label %57

46:                                               ; preds = %38
  %47 = load i64, ptr %6, align 8, !tbaa !66
  %48 = load i64, ptr %10, align 8, !tbaa !66
  %49 = add i64 %47, %48
  %50 = load i64, ptr %6, align 8, !tbaa !66
  %51 = icmp ult i64 %49, %50
  br i1 %51, label %52, label %53

52:                                               ; preds = %46
  store i64 -2, ptr %3, align 8
  store i32 1, ptr %9, align 4
  br label %57

53:                                               ; preds = %46
  %54 = load i64, ptr %10, align 8, !tbaa !66
  %55 = load i64, ptr %6, align 8, !tbaa !66
  %56 = add i64 %55, %54
  store i64 %56, ptr %6, align 8, !tbaa !66
  store i32 0, ptr %9, align 4
  br label %57

57:                                               ; preds = %53, %52, %44
  call void @llvm.lifetime.end.p0(i64 8, ptr %10) #12
  %58 = load i32, ptr %9, align 4
  switch i32 %58, label %77 [
    i32 0, label %59
  ]

59:                                               ; preds = %57
  call void @llvm.lifetime.start.p0(i64 8, ptr %11) #12
  %60 = load ptr, ptr %4, align 8, !tbaa !33
  %61 = load i64, ptr %5, align 8, !tbaa !34
  %62 = call noundef i64 @_ZN11duckdb_zstd28ZSTD_findFrameCompressedSizeEPKvm(ptr noundef %60, i64 noundef %61)
  store i64 %62, ptr %11, align 8, !tbaa !34
  %63 = load i64, ptr %11, align 8, !tbaa !34
  %64 = call noundef i32 @_ZN11duckdb_zstdL11ERR_isErrorEm(i64 noundef %63)
  %65 = icmp ne i32 %64, 0
  br i1 %65, label %66, label %67

66:                                               ; preds = %59
  store i64 -2, ptr %3, align 8
  store i32 1, ptr %9, align 4
  br label %74

67:                                               ; preds = %59
  %68 = load ptr, ptr %4, align 8, !tbaa !33
  %69 = load i64, ptr %11, align 8, !tbaa !34
  %70 = getelementptr inbounds nuw i8, ptr %68, i64 %69
  store ptr %70, ptr %4, align 8, !tbaa !33
  %71 = load i64, ptr %11, align 8, !tbaa !34
  %72 = load i64, ptr %5, align 8, !tbaa !34
  %73 = sub i64 %72, %71
  store i64 %73, ptr %5, align 8, !tbaa !34
  store i32 0, ptr %9, align 4
  br label %74

74:                                               ; preds = %67, %66
  call void @llvm.lifetime.end.p0(i64 8, ptr %11) #12
  %75 = load i32, ptr %9, align 4
  switch i32 %75, label %77 [
    i32 0, label %76
  ]

76:                                               ; preds = %74
  store i32 0, ptr %9, align 4
  br label %77

77:                                               ; preds = %76, %74, %57, %37
  call void @llvm.lifetime.end.p0(i64 4, ptr %7) #12
  %78 = load i32, ptr %9, align 4
  switch i32 %78, label %86 [
    i32 0, label %79
    i32 2, label %12
  ]

79:                                               ; preds = %77
  br label %12, !llvm.loop !67

80:                                               ; preds = %12
  %81 = load i64, ptr %5, align 8, !tbaa !34
  %82 = icmp ne i64 %81, 0
  br i1 %82, label %83, label %84

83:                                               ; preds = %80
  store i64 -2, ptr %3, align 8
  store i32 1, ptr %9, align 4
  br label %86

84:                                               ; preds = %80
  %85 = load i64, ptr %6, align 8, !tbaa !66
  store i64 %85, ptr %3, align 8
  store i32 1, ptr %9, align 4
  br label %86

86:                                               ; preds = %84, %83, %77
  call void @llvm.lifetime.end.p0(i64 8, ptr %6) #12
  %87 = load i64, ptr %3, align 8
  ret i64 %87
}