; Function Attrs: mustprogress uwtable
define noundef i64 @_ZN11duckdb_zstd25ZSTD_findDecompressedSizeEPKvm(ptr noundef %0, i64 noundef %1) local_unnamed_addr #0 {
  %3 = alloca %"struct.duckdb_zstd::ZSTD_frameSizeInfo", align 8
  %4 = alloca %"struct.duckdb_zstd::ZSTD_frameHeader", align 8
  %.not70 = icmp ult i64 %1, 5
  br i1 %.not70, label %._crit_edge, label %.lr.ph

.lr.ph:                                           ; preds = %2
  %5 = getelementptr inbounds nuw i8, ptr %4, i64 20
  %6 = getelementptr inbounds nuw i8, ptr %3, i64 8
  br label %7

7:                                                ; preds = %.lr.ph, %28
  %.03273 = phi ptr [ %0, %.lr.ph ], [ %.234, %28 ]
  %.04072 = phi i64 [ %1, %.lr.ph ], [ %.242, %28 ]
  %.04471 = phi i64 [ 0, %.lr.ph ], [ %.145, %28 ]
  %.032.val = load i32, ptr %.03273, align 1, !tbaa !55
  %8 = and i32 %.032.val, -16
  %9 = icmp eq i32 %8, 407710288
  br i1 %9, label %10, label %17

10:                                               ; preds = %7
  %11 = icmp ult i64 %.04072, 8
  br i1 %11, label %.thread60, label %12

12:                                               ; preds = %10
  %13 = getelementptr inbounds nuw i8, ptr %.03273, i64 4
  %.val.i = load i32, ptr %13, align 1, !tbaa !55
  %14 = icmp ugt i32 %.val.i, -9
  %15 = zext i32 %.val.i to i64
  %16 = add nuw nsw i64 %15, 8
  %.not76 = icmp ugt i64 %16, %.04072
  %or.cond = select i1 %14, i1 true, i1 %.not76
  br i1 %or.cond, label %.thread60, label %28, !llvm.loop !67

17:                                               ; preds = %7
  call void @llvm.lifetime.start.p0(i64 48, ptr nonnull %4) #17
  %18 = call noundef i64 @_ZN11duckdb_zstd28ZSTD_getFrameHeader_advancedEPNS_16ZSTD_frameHeaderEPKvmNS_13ZSTD_format_eE(ptr noundef nonnull %4, ptr noundef nonnull %.03273, i64 noundef %.04072, i32 noundef 0)
  %.not.i = icmp eq i64 %18, 0
  %19 = load i32, ptr %5, align 4
  %20 = icmp eq i32 %19, 1
  %21 = load i64, ptr %4, align 8
  %spec.select.i = select i1 %20, i64 0, i64 %21
  %.0.i54 = select i1 %.not.i, i64 %spec.select.i, i64 -2
  call void @llvm.lifetime.end.p0(i64 48, ptr nonnull %4) #17
  %22 = icmp ugt i64 %.0.i54, -3
  br i1 %22, label %.thread60, label %23

23:                                               ; preds = %17
  %24 = add i64 %.0.i54, %.04471
  %.not66 = icmp ult i64 %24, %.04471
  br i1 %.not66, label %.thread60, label %25

25:                                               ; preds = %23
  call void @llvm.lifetime.start.p0(i64 24, ptr nonnull %3) #17
  call fastcc void @_ZN11duckdb_zstdL22ZSTD_findFrameSizeInfoEPKvmNS_13ZSTD_format_eE(ptr dead_on_unwind noalias writable align 8 %3, ptr noundef nonnull %.03273, i64 noundef %.04072, i32 noundef 0)
  %26 = load i64, ptr %6, align 8, !tbaa !69
  call void @llvm.lifetime.end.p0(i64 24, ptr nonnull %3) #17
  %27 = icmp ult i64 %26, -119
  br i1 %27, label %28, label %.thread60

28:                                               ; preds = %12, %25
  %.145 = phi i64 [ %24, %25 ], [ %.04471, %12 ]
  %..i.pn = phi i64 [ %26, %25 ], [ %16, %12 ]
  %.234 = getelementptr inbounds nuw i8, ptr %.03273, i64 %..i.pn
  %.242 = sub i64 %.04072, %..i.pn
  %.not = icmp ult i64 %.242, 5
  br i1 %.not, label %._crit_edge, label %7

._crit_edge:                                      ; preds = %28, %2
  %.044.lcssa = phi i64 [ 0, %2 ], [ %.145, %28 ]
  %.040.lcssa = phi i64 [ %1, %2 ], [ %.242, %28 ]
  %.not50 = icmp eq i64 %.040.lcssa, 0
  %.044.53 = select i1 %.not50, i64 %.044.lcssa, i64 -2
  br label %.thread60

.thread60:                                        ; preds = %17, %12, %10, %25, %23, %._crit_edge
  %.5 = phi i64 [ %.044.53, %._crit_edge ], [ %.0.i54, %17 ], [ -2, %12 ], [ -2, %10 ], [ -2, %23 ], [ -2, %25 ]
  ret i64 %.5
}